###############################################################################
#                                                                             #
# IAR C/C++ Compiler V8.10.3.10338/W32 for 8051         14/Aug/2014  16:41:54 #
# Copyright 2004-2011 IAR Systems AB.                                         #
#                                                                             #
#    Core               =  plain                                              #
#    Code model         =  banked                                             #
#    Data model         =  large                                              #
#    Calling convention =  xdata reentrant                                    #
#    Constant location  =  data_rom                                           #
#    Dptr setup         =  1,16                                               #
#    Source file        =  C:\Users\boyangle\Desktop\000\Projects\zstack\Samp #
#                          les\SampleApp\Source\DHT11.c                       #
#    Command line       =  -f C:\Users\boyangle\Desktop\000\Projects\zstack\S #
#                          amples\SampleApp\CC2530DB\..\..\..\Tools\CC2530DB\ #
#                          f8wEndev.cfg (-DCPU32MHZ -DROOT=__near_func        #
#                          -DMAC_CFG_TX_DATA_MAX=3 -DMAC_CFG_TX_MAX=6         #
#                          -DMAC_CFG_RX_MAX=3) -f C:\Users\boyangle\Desktop\0 #
#                          00\Projects\zstack\Samples\SampleApp\CC2530DB\..\. #
#                          .\..\Tools\CC2530DB\f8wConfig.cfg (-DZIGBEEPRO     #
#                          -DSECURE=0 -DZG_SECURE_DYNAMIC=0 -DREFLECTOR       #
#                          -DDEFAULT_CHANLIST=0x00000800                      #
#                          -DZDAPP_CONFIG_PAN_ID=0xFFFF                       #
#                          -DNWK_START_DELAY=100 -DEXTENDED_JOINING_RANDOM_MA #
#                          SK=0x007F -DBEACON_REQUEST_DELAY=100               #
#                          -DBEACON_REQ_DELAY_MASK=0x00FF                     #
#                          -DLINK_STATUS_JITTER_MASK=0x007F                   #
#                          -DROUTE_EXPIRY_TIME=30 -DAPSC_ACK_WAIT_DURATION_PO #
#                          LLED=3000 -DNWK_INDIRECT_MSG_TIMEOUT=7             #
#                          -DMAX_RREQ_ENTRIES=8 -DAPSC_MAX_FRAME_RETRIES=3    #
#                          -DNWK_MAX_DATA_RETRIES=2                           #
#                          -DMAX_POLL_FAILURE_RETRIES=2 -DMAX_BCAST=9         #
#                          -DAPS_MAX_GROUPS=16 -DMAX_RTG_ENTRIES=40           #
#                          -DNWK_MAX_BINDING_ENTRIES=4                        #
#                          -DMAX_BINDING_CLUSTER_IDS=4 "-DDEFAULT_KEY={0x01,  #
#                          0x03, 0x05, 0x07, 0x09, 0x0B, 0x0D, 0x0F, 0x00,    #
#                          0x02, 0x04, 0x06, 0x08, 0x0A, 0x0C, 0x0D}"         #
#                          -DMAC_MAX_FRAME_SIZE=116                           #
#                          -DZDNWKMGR_MIN_TRANSMISSIONS=20 "-DCONST=const     #
#                          __code" -DGENERIC=__generic                        #
#                          -DRFD_RCVC_ALWAYS_ON=FALSE -DPOLL_RATE=1000        #
#                          -DQUEUED_POLL_RATE=100 -DRESPONSE_POLL_RATE=100)   #
#                          -DREJOIN_POLL_RATE=440 C:\Users\boyangle\Desktop\0 #
#                          00\Projects\zstack\Samples\SampleApp\Source\DHT11. #
#                          c -D xNWK_AUTO_POLL -D ZTOOL_P1 -D end03 -D        #
#                          xMT_TASK -D xMT_SYS_FUNC -D xMT_ZDO_FUNC -D        #
#                          xLCD_SUPPORTED=DEBUG -lC                           #
#                          C:\Users\boyangle\Desktop\000\Projects\zstack\Samp #
#                          les\SampleApp\CC2530DB\EndDeviceEB\List\ -lA       #
#                          C:\Users\boyangle\Desktop\000\Projects\zstack\Samp #
#                          les\SampleApp\CC2530DB\EndDeviceEB\List\           #
#                          --diag_suppress Pe001,Pa010 -o                     #
#                          C:\Users\boyangle\Desktop\000\Projects\zstack\Samp #
#                          les\SampleApp\CC2530DB\EndDeviceEB\Obj\ -e         #
#                          --no_code_motion --debug --core=plain --dptr=16,1  #
#                          --data_model=large --code_model=banked             #
#                          --calling_convention=xdata_reentrant               #
#                          --place_constants=data_rom --nr_virtual_regs 16    #
#                          -I C:\Users\boyangle\Desktop\000\Projects\zstack\S #
#                          amples\SampleApp\CC2530DB\ -I                      #
#                          C:\Users\boyangle\Desktop\000\Projects\zstack\Samp #
#                          les\SampleApp\CC2530DB\..\Source\ -I               #
#                          C:\Users\boyangle\Desktop\000\Projects\zstack\Samp #
#                          les\SampleApp\CC2530DB\..\..\..\ZMain\TI2530DB\    #
#                          -I C:\Users\boyangle\Desktop\000\Projects\zstack\S #
#                          amples\SampleApp\CC2530DB\..\..\..\..\..\Component #
#                          s\hal\include\ -I C:\Users\boyangle\Desktop\000\Pr #
#                          ojects\zstack\Samples\SampleApp\CC2530DB\..\..\..\ #
#                          ..\..\Components\hal\target\CC2530EB\ -I           #
#                          C:\Users\boyangle\Desktop\000\Projects\zstack\Samp #
#                          les\SampleApp\CC2530DB\..\..\..\..\..\Components\m #
#                          ac\include\ -I C:\Users\boyangle\Desktop\000\Proje #
#                          cts\zstack\Samples\SampleApp\CC2530DB\..\..\..\..\ #
#                          ..\Components\mac\high_level\ -I                   #
#                          C:\Users\boyangle\Desktop\000\Projects\zstack\Samp #
#                          les\SampleApp\CC2530DB\..\..\..\..\..\Components\m #
#                          ac\low_level\srf04\ -I C:\Users\boyangle\Desktop\0 #
#                          00\Projects\zstack\Samples\SampleApp\CC2530DB\..\. #
#                          .\..\..\..\Components\mac\low_level\srf04\single_c #
#                          hip\ -I C:\Users\boyangle\Desktop\000\Projects\zst #
#                          ack\Samples\SampleApp\CC2530DB\..\..\..\..\..\Comp #
#                          onents\mt\ -I C:\Users\boyangle\Desktop\000\Projec #
#                          ts\zstack\Samples\SampleApp\CC2530DB\..\..\..\..\. #
#                          .\Components\osal\include\ -I                      #
#                          C:\Users\boyangle\Desktop\000\Projects\zstack\Samp #
#                          les\SampleApp\CC2530DB\..\..\..\..\..\Components\s #
#                          ervices\saddr\ -I C:\Users\boyangle\Desktop\000\Pr #
#                          ojects\zstack\Samples\SampleApp\CC2530DB\..\..\..\ #
#                          ..\..\Components\services\sdata\ -I                #
#                          C:\Users\boyangle\Desktop\000\Projects\zstack\Samp #
#                          les\SampleApp\CC2530DB\..\..\..\..\..\Components\s #
#                          tack\af\ -I C:\Users\boyangle\Desktop\000\Projects #
#                          \zstack\Samples\SampleApp\CC2530DB\..\..\..\..\..\ #
#                          Components\stack\nwk\ -I                           #
#                          C:\Users\boyangle\Desktop\000\Projects\zstack\Samp #
#                          les\SampleApp\CC2530DB\..\..\..\..\..\Components\s #
#                          tack\sapi\ -I C:\Users\boyangle\Desktop\000\Projec #
#                          ts\zstack\Samples\SampleApp\CC2530DB\..\..\..\..\. #
#                          .\Components\stack\sec\ -I                         #
#                          C:\Users\boyangle\Desktop\000\Projects\zstack\Samp #
#                          les\SampleApp\CC2530DB\..\..\..\..\..\Components\s #
#                          tack\sys\ -I C:\Users\boyangle\Desktop\000\Project #
#                          s\zstack\Samples\SampleApp\CC2530DB\..\..\..\..\.. #
#                          \Components\stack\zdo\ -I                          #
#                          C:\Users\boyangle\Desktop\000\Projects\zstack\Samp #
#                          les\SampleApp\CC2530DB\..\..\..\..\..\Components\z #
#                          mac\ -I C:\Users\boyangle\Desktop\000\Projects\zst #
#                          ack\Samples\SampleApp\CC2530DB\..\..\..\..\..\Comp #
#                          onents\zmac\f8w\ -Ohz --require_prototypes         #
#    List file          =  C:\Users\boyangle\Desktop\000\Projects\zstack\Samp #
#                          les\SampleApp\CC2530DB\EndDeviceEB\List\DHT11.lst  #
#    Object file        =  C:\Users\boyangle\Desktop\000\Projects\zstack\Samp #
#                          les\SampleApp\CC2530DB\EndDeviceEB\Obj\DHT11.r51   #
#                                                                             #
#                                                                             #
###############################################################################

C:\Users\boyangle\Desktop\000\Projects\zstack\Samples\SampleApp\Source\DHT11.c
      1          #include <ioCC2530.h>

   \                                 In  segment SFR_AN, at 0x80
   \   union <unnamed> volatile __sfr _A_P0
   \                     _A_P0:
   \   000000                DS 1

   \                                 In  segment SFR_AN, at 0xfd
   \   unsigned char volatile __sfr P0DIR
   \                     P0DIR:
   \   000000                DS 1
      2          #include "OnBoard.h"
      3          
      4          typedef unsigned char uchar;
      5          typedef unsigned int  uint;
      6          
      7          #define DATA_PIN P0_7
      8          
      9          void Delay_us(void);
     10          void Delay_10us(void);
     11          void Delay_ms(uint Time);
     12          void COM(void);
     13          void DHT11(void);
     14          
     15          //温湿度定义

   \                                 In  segment XDATA_Z, align 1, keep-with-next
     16          uchar ucharFLAG,uchartemp;
   \                     ucharFLAG:
   \   000000                DS 1
   \   000001                REQUIRE __INIT_XDATA_Z

   \                                 In  segment XDATA_Z, align 1, keep-with-next
   \                     uchartemp:
   \   000000                DS 1
   \   000001                REQUIRE __INIT_XDATA_Z

   \                                 In  segment XDATA_Z, align 1, keep-with-next
     17          uchar ucharT_data_H,ucharT_data_L,ucharRH_data_H,ucharRH_data_L,ucharcheckdata;
   \                     ucharT_data_H:
   \   000000                DS 1
   \   000001                REQUIRE __INIT_XDATA_Z

   \                                 In  segment XDATA_Z, align 1, keep-with-next
   \                     ucharT_data_L:
   \   000000                DS 1
   \   000001                REQUIRE __INIT_XDATA_Z

   \                                 In  segment XDATA_Z, align 1, keep-with-next
   \                     ucharRH_data_H:
   \   000000                DS 1
   \   000001                REQUIRE __INIT_XDATA_Z

   \                                 In  segment XDATA_Z, align 1, keep-with-next
   \                     ucharRH_data_L:
   \   000000                DS 1
   \   000001                REQUIRE __INIT_XDATA_Z

   \                                 In  segment XDATA_Z, align 1, keep-with-next
   \                     ucharcheckdata:
   \   000000                DS 1
   \   000001                REQUIRE __INIT_XDATA_Z

   \                                 In  segment XDATA_Z, align 1, keep-with-next
     18          uchar ucharT_data_H_temp,ucharT_data_L_temp,ucharRH_data_H_temp,ucharRH_data_L_temp,ucharcheckdata_temp;
   \                     ucharT_data_H_temp:
   \   000000                DS 1
   \   000001                REQUIRE __INIT_XDATA_Z

   \                                 In  segment XDATA_Z, align 1, keep-with-next
   \                     ucharT_data_L_temp:
   \   000000                DS 1
   \   000001                REQUIRE __INIT_XDATA_Z

   \                                 In  segment XDATA_Z, align 1, keep-with-next
   \                     ucharRH_data_H_temp:
   \   000000                DS 1
   \   000001                REQUIRE __INIT_XDATA_Z

   \                                 In  segment XDATA_Z, align 1, keep-with-next
   \                     ucharRH_data_L_temp:
   \   000000                DS 1
   \   000001                REQUIRE __INIT_XDATA_Z

   \                                 In  segment XDATA_Z, align 1, keep-with-next
   \                     ucharcheckdata_temp:
   \   000000                DS 1
   \   000001                REQUIRE __INIT_XDATA_Z

   \                                 In  segment XDATA_Z, align 1, keep-with-next
     19          uchar ucharcomdata;
   \                     ucharcomdata:
   \   000000                DS 1
   \   000001                REQUIRE __INIT_XDATA_Z

   \                                 In  segment XDATA_Z, align 1, keep-with-next
     20          uint  T_temp,RH_temp;
   \                     T_temp:
   \   000000                DS 2
   \   000002                REQUIRE __INIT_XDATA_Z

   \                                 In  segment XDATA_Z, align 1, keep-with-next
   \                     RH_temp:
   \   000000                DS 2
   \   000002                REQUIRE __INIT_XDATA_Z

   \                                 In  segment XDATA_Z, align 1, keep-with-next
     21          uchar value_wenshi[8];
   \                     value_wenshi:
   \   000000                DS 8
   \   000008                REQUIRE __INIT_XDATA_Z
     22          
     23          //延时函数

   \                                 In  segment BANKED_CODE, align 1, keep-with-next
     24          void Delay_us(void) //1 us延时
   \                     Delay_us:
     25          {
   \   000000   C082         PUSH    DPL
   \   000002   C083         PUSH    DPH
   \   000004                ; Saved register size: 2
   \   000004                ; Auto size: 0
     26              MicroWait(1);   
   \   000004                ; Setup parameters for call to function Onboard_wait
   \   000004   7A01         MOV     R2,#0x1
   \   000006                REQUIRE ?Subroutine0
   \   000006                ; // Fall through to label ?Subroutine0
     27          }

   \                                 In  segment BANKED_CODE, align 1, keep-with-next
   \                     ?Subroutine0:
   \   000000   7B00         MOV     R3,#0x0
   \   000002   12....       LCALL   ??Onboard_wait?relay
   \   000005                REQUIRE ??Subroutine6_0
   \   000005                ; // Fall through to label ??Subroutine6_0

   \                                 In  segment BANKED_CODE, align 1, keep-with-next
   \                     ??Subroutine6_0:
   \   000000   D083         POP     DPH
   \   000002   D082         POP     DPL
   \   000004   02....       LJMP    ?BRET
     28          

   \                                 In  segment BANKED_CODE, align 1, keep-with-next
     29          void Delay_10us(void) //10 us延时
   \                     Delay_10us:
     30          {
   \   000000   C082         PUSH    DPL
   \   000002   C083         PUSH    DPH
   \   000004                ; Saved register size: 2
   \   000004                ; Auto size: 0
     31             MicroWait(10);
   \   000004                ; Setup parameters for call to function Onboard_wait
   \   000004   7A0A         MOV     R2,#0xa
   \   000006   80..         SJMP    ?Subroutine0
     32          }
     33          

   \                                 In  segment BANKED_CODE, align 1, keep-with-next
     34          void Delay_ms(uint Time)//n ms延时
   \                     Delay_ms:
     35          {
   \   000000   74F7         MOV     A,#-0x9
   \   000002   12....       LCALL   ?BANKED_ENTER_XDATA
   \   000005                ; Saved register size: 9
   \   000005                ; Auto size: 0
   \   000005   EA           MOV     A,R2
   \   000006   FE           MOV     R6,A
   \   000007   EB           MOV     A,R3
   \   000008   FF           MOV     R7,A
     36            unsigned char i;
     37            while(Time--)
   \                     ??Delay_ms_0:
   \   000009   EE           MOV     A,R6
   \   00000A   F8           MOV     R0,A
   \   00000B   EF           MOV     A,R7
   \   00000C   F9           MOV     R1,A
   \   00000D   E8           MOV     A,R0
   \   00000E   24FF         ADD     A,#-0x1
   \   000010   1E           DEC     R6
   \   000011   E9           MOV     A,R1
   \   000012   34FF         ADDC    A,#-0x1
   \   000014   FF           MOV     R7,A
   \   000015   E8           MOV     A,R0
   \   000016   49           ORL     A,R1
   \   000017   6012         JZ      ??Delay_ms_1
     38            {
     39              for(i=0;i<100;i++)
   \   000019   75..64       MOV     ?V0 + 0,#0x64
     40               Delay_10us();
   \                     ??Delay_ms_2:
   \   00001C                ; Setup parameters for call to function Onboard_wait
   \   00001C   7A0A         MOV     R2,#0xa
   \   00001E   7B00         MOV     R3,#0x0
   \   000020   12....       LCALL   ??Onboard_wait?relay
   \   000023   15..         DEC     ?V0 + 0
   \   000025   E5..         MOV     A,?V0 + 0
   \   000027   60E0         JZ      ??Delay_ms_0
   \   000029   80F1         SJMP    ??Delay_ms_2
     41            }
     42          }
   \                     ??Delay_ms_1:
   \   00002B                REQUIRE ?Subroutine1
   \   00002B                ; // Fall through to label ?Subroutine1

   \                                 In  segment BANKED_CODE, align 1, keep-with-next
   \                     ?Subroutine1:
   \   000000   7F01         MOV     R7,#0x1
   \   000002   02....       LJMP    ?BANKED_LEAVE_XDATA
     43          
     44          //温湿度传感

   \                                 In  segment BANKED_CODE, align 1, keep-with-next
     45          void COM(void)    // 温湿写入
   \                     COM:
     46          {     
   \   000000   74F7         MOV     A,#-0x9
   \   000002   12....       LCALL   ?BANKED_ENTER_XDATA
   \   000005                ; Saved register size: 9
   \   000005                ; Auto size: 0
     47              uchar i;         
     48              for(i=0;i<8;i++)    
   \   000005   7E08         MOV     R6,#0x8
     49              {
     50                  ucharFLAG=2; 
   \                     ??COM_0:
   \   000007   90....       MOV     DPTR,#ucharFLAG
   \   00000A   7402         MOV     A,#0x2
   \   00000C   F0           MOVX    @DPTR,A
     51                  while((!DATA_PIN)&&ucharFLAG++);
   \                     ??COM_1:
   \   00000D   A287         MOV     C,0x80.7
   \   00000F   4005         JC      ??COM_2
   \   000011   12....       LCALL   ?Subroutine5 & 0xFFFF
   \                     ??CrossCallReturnLabel_2:
   \   000014   70F7         JNZ     ??COM_1
     52                  Delay_10us();
   \                     ??COM_2:
   \   000016                ; Setup parameters for call to function Onboard_wait
   \   000016   12....       LCALL   ?Subroutine4 & 0xFFFF
     53                  Delay_10us();
     54                  Delay_10us();
     55                  uchartemp=0;
   \                     ??CrossCallReturnLabel_0:
   \   000019   90....       MOV     DPTR,#uchartemp
   \   00001C   E4           CLR     A
   \   00001D   F0           MOVX    @DPTR,A
     56                  if(DATA_PIN)uchartemp=1;
   \   00001E   A287         MOV     C,0x80.7
   \   000020   5002         JNC     ??COM_3
   \   000022   04           INC     A
   \   000023   F0           MOVX    @DPTR,A
     57                  ucharFLAG=2;
   \                     ??COM_3:
   \   000024   90....       MOV     DPTR,#ucharFLAG
   \   000027   7402         MOV     A,#0x2
   \   000029   F0           MOVX    @DPTR,A
     58                  while((DATA_PIN)&&ucharFLAG++);   
   \                     ??COM_4:
   \   00002A   A287         MOV     C,0x80.7
   \   00002C   5005         JNC     ??COM_5
   \   00002E   12....       LCALL   ?Subroutine5 & 0xFFFF
   \                     ??CrossCallReturnLabel_3:
   \   000031   70F7         JNZ     ??COM_4
     59                  if(ucharFLAG==1)break;    
   \                     ??COM_5:
   \   000033   E0           MOVX    A,@DPTR
   \   000034   6401         XRL     A,#0x1
   \   000036   601B         JZ      ??COM_6
     60                  ucharcomdata<<=1;
     61                  ucharcomdata|=uchartemp; 
   \   000038   90....       MOV     DPTR,#uchartemp
   \   00003B   C082         PUSH    DPL
   \   00003D   90....       MOV     DPTR,#ucharcomdata
   \   000040   E0           MOVX    A,@DPTR
   \   000041   C3           CLR     C
   \   000042   33           RLC     A
   \   000043   7583..       MOV     DPH,#(uchartemp >> 8) & 0xff
   \   000046   D082         POP     DPL
   \   000048   F8           MOV     R0,A
   \   000049   E0           MOVX    A,@DPTR
   \   00004A   48           ORL     A,R0
   \   00004B   90....       MOV     DPTR,#ucharcomdata
   \   00004E   F0           MOVX    @DPTR,A
     62              }    
   \   00004F   1E           DEC     R6
   \   000050   EE           MOV     A,R6
   \   000051   70B4         JNZ     ??COM_0
     63          }
   \                     ??COM_6:
   \   000053   80..         SJMP    ?Subroutine1
   \   000055                REQUIRE _A_P0

   \                                 In  segment BANKED_CODE, align 1, keep-with-next
   \                     ?Subroutine5:
   \   000000   E0           MOVX    A,@DPTR
   \   000001   F8           MOV     R0,A
   \   000002   7401         MOV     A,#0x1
   \   000004   28           ADD     A,R0
   \   000005   F0           MOVX    @DPTR,A
   \   000006   E8           MOV     A,R0
   \   000007   22           RET

   \                                 In  segment BANKED_CODE, align 1, keep-with-next
   \                     ?Subroutine4:
   \   000000   7A0A         MOV     R2,#0xa
   \   000002   7B00         MOV     R3,#0x0
   \   000004   12....       LCALL   ??Onboard_wait?relay
   \   000007                ; Setup parameters for call to function Onboard_wait
   \   000007                ; Setup parameters for call to function Onboard_wait
   \   000007   7A0A         MOV     R2,#0xa
   \   000009   7B00         MOV     R3,#0x0
   \   00000B   12....       LCALL   ??Onboard_wait?relay
   \   00000E                ; Setup parameters for call to function Onboard_wait
   \   00000E                ; Setup parameters for call to function Onboard_wait
   \   00000E   7A0A         MOV     R2,#0xa
   \   000010   7B00         MOV     R3,#0x0
   \   000012   12....       LCALL   ??Onboard_wait?relay
   \   000015   22           RET
     64          

   \                                 In  segment BANKED_CODE, align 1, keep-with-next
     65          void DHT11(void)   //温湿传感启动
   \                     DHT11:
     66          {
   \   000000   C082         PUSH    DPL
   \   000002   C083         PUSH    DPH
   \   000004                ; Saved register size: 2
   \   000004                ; Auto size: 0
     67              DATA_PIN=0;
   \   000004   C287         CLR     0x80.7
     68              Delay_ms(19);  //>18MS
   \   000006                ; Setup parameters for call to function Delay_ms
   \   000006   7A13         MOV     R2,#0x13
   \   000008   7B00         MOV     R3,#0x0
   \   00000A   12....       LCALL   ??Delay_ms?relay
     69              DATA_PIN=1; 
   \   00000D   D287         SETB    0x80.7
     70              P0DIR &= ~0x80; //重新配置IO口方向
   \   00000F   53FD7F       ANL     0xfd,#0x7f
     71              Delay_10us();
   \   000012                ; Setup parameters for call to function Onboard_wait
   \   000012   12....       LCALL   ?Subroutine4 & 0xFFFF
     72              Delay_10us();                        
     73              Delay_10us();
     74              Delay_10us();  
   \                     ??CrossCallReturnLabel_1:
   \   000015                ; Setup parameters for call to function Onboard_wait
   \   000015   7A0A         MOV     R2,#0xa
   \   000017   7B00         MOV     R3,#0x0
   \   000019   12....       LCALL   ??Onboard_wait?relay
     75              if(!DATA_PIN) 
   \   00001C   A287         MOV     C,0x80.7
   \   00001E   5003         JNC     $+5
   \   000020   02....       LJMP    ??DHT11_0 & 0xFFFF
     76              {
     77                  ucharFLAG=2; 
   \   000023   90....       MOV     DPTR,#ucharFLAG
   \   000026   7402         MOV     A,#0x2
   \   000028   F0           MOVX    @DPTR,A
     78                  while((!DATA_PIN)&&ucharFLAG++);
   \                     ??DHT11_1:
   \   000029   A287         MOV     C,0x80.7
   \   00002B   4005         JC      ??DHT11_2
   \   00002D   12....       LCALL   ?Subroutine5 & 0xFFFF
   \                     ??CrossCallReturnLabel_4:
   \   000030   70F7         JNZ     ??DHT11_1
     79                  ucharFLAG=2;
   \                     ??DHT11_2:
   \   000032   7402         MOV     A,#0x2
   \   000034   F0           MOVX    @DPTR,A
     80                  while((DATA_PIN)&&ucharFLAG++); 
   \                     ??DHT11_3:
   \   000035   A287         MOV     C,0x80.7
   \   000037   5005         JNC     ??DHT11_4
   \   000039   12....       LCALL   ?Subroutine5 & 0xFFFF
   \                     ??CrossCallReturnLabel_5:
   \   00003C   70F7         JNZ     ??DHT11_3
     81                  COM();
   \                     ??DHT11_4:
   \   00003E                ; Setup parameters for call to function COM
   \   00003E   12....       LCALL   ??Subroutine7_0 & 0xFFFF
     82                  ucharRH_data_H_temp=ucharcomdata;
   \                     ??CrossCallReturnLabel_10:
   \   000041   90....       MOV     DPTR,#ucharRH_data_H_temp
   \   000044   12....       LCALL   ?Subroutine3 & 0xFFFF
     83                  COM();
     84                  ucharRH_data_L_temp=ucharcomdata;
   \                     ??CrossCallReturnLabel_6:
   \   000047   90....       MOV     DPTR,#ucharRH_data_L_temp
   \   00004A   12....       LCALL   ?Subroutine3 & 0xFFFF
     85                  COM();
     86                  ucharT_data_H_temp=ucharcomdata;
   \                     ??CrossCallReturnLabel_7:
   \   00004D   90....       MOV     DPTR,#ucharT_data_H_temp
   \   000050   12....       LCALL   ?Subroutine3 & 0xFFFF
     87                  COM();
     88                  ucharT_data_L_temp=ucharcomdata;
   \                     ??CrossCallReturnLabel_8:
   \   000053   90....       MOV     DPTR,#ucharT_data_L_temp
   \   000056   12....       LCALL   ?Subroutine3 & 0xFFFF
     89                  COM();
     90                  ucharcheckdata_temp=ucharcomdata;
   \                     ??CrossCallReturnLabel_9:
   \   000059   90....       MOV     DPTR,#ucharcheckdata_temp
   \   00005C   F0           MOVX    @DPTR,A
     91                  DATA_PIN=1; 
   \   00005D   D287         SETB    0x80.7
     92                  uchartemp=(ucharT_data_H_temp+ucharT_data_L_temp+ucharRH_data_H_temp+ucharRH_data_L_temp);
   \   00005F   90....       MOV     DPTR,#ucharRH_data_L_temp
   \   000062   C082         PUSH    DPL
   \   000064   C083         PUSH    DPH
   \   000066   90....       MOV     DPTR,#ucharRH_data_H_temp
   \   000069   C082         PUSH    DPL
   \   00006B   C083         PUSH    DPH
   \   00006D   90....       MOV     DPTR,#ucharT_data_L_temp
   \   000070   C082         PUSH    DPL
   \   000072   90....       MOV     DPTR,#ucharT_data_H_temp
   \   000075   E0           MOVX    A,@DPTR
   \   000076   7583..       MOV     DPH,#(ucharT_data_L_temp >> 8) & 0xff
   \   000079   D082         POP     DPL
   \   00007B   F8           MOV     R0,A
   \   00007C   E0           MOVX    A,@DPTR
   \   00007D   28           ADD     A,R0
   \   00007E   D083         POP     DPH
   \   000080   D082         POP     DPL
   \   000082   F8           MOV     R0,A
   \   000083   E0           MOVX    A,@DPTR
   \   000084   28           ADD     A,R0
   \   000085   D083         POP     DPH
   \   000087   D082         POP     DPL
   \   000089   F8           MOV     R0,A
   \   00008A   E0           MOVX    A,@DPTR
   \   00008B   28           ADD     A,R0
   \   00008C   90....       MOV     DPTR,#uchartemp
   \   00008F   F0           MOVX    @DPTR,A
     93                  if(uchartemp==ucharcheckdata_temp)
   \   000090   F8           MOV     R0,A
   \   000091   90....       MOV     DPTR,#ucharcheckdata_temp
   \   000094   E0           MOVX    A,@DPTR
   \   000095   68           XRL     A,R0
   \   000096   7028         JNZ     ??DHT11_5
     94                  {
     95                      ucharRH_data_H=ucharRH_data_H_temp;
   \   000098   90....       MOV     DPTR,#ucharRH_data_H_temp
   \   00009B   E0           MOVX    A,@DPTR
   \   00009C   90....       MOV     DPTR,#ucharRH_data_H
   \   00009F   F0           MOVX    @DPTR,A
     96                      ucharRH_data_L=ucharRH_data_L_temp;
   \   0000A0   90....       MOV     DPTR,#ucharRH_data_L_temp
   \   0000A3   E0           MOVX    A,@DPTR
   \   0000A4   90....       MOV     DPTR,#ucharRH_data_L
   \   0000A7   F0           MOVX    @DPTR,A
     97                      ucharT_data_H=ucharT_data_H_temp;
   \   0000A8   90....       MOV     DPTR,#ucharT_data_H_temp
   \   0000AB   E0           MOVX    A,@DPTR
   \   0000AC   90....       MOV     DPTR,#ucharT_data_H
   \   0000AF   F0           MOVX    @DPTR,A
     98                      ucharT_data_L=ucharT_data_L_temp;
   \   0000B0   90....       MOV     DPTR,#ucharT_data_L_temp
   \   0000B3   E0           MOVX    A,@DPTR
   \   0000B4   90....       MOV     DPTR,#ucharT_data_L
   \   0000B7   F0           MOVX    @DPTR,A
     99                      ucharcheckdata=ucharcheckdata_temp;
   \   0000B8   90....       MOV     DPTR,#ucharcheckdata_temp
   \   0000BB   E0           MOVX    A,@DPTR
   \   0000BC   90....       MOV     DPTR,#ucharcheckdata
   \   0000BF   F0           MOVX    @DPTR,A
    100                  }
    101                  if(ucharT_data_H & 0x80)
   \                     ??DHT11_5:
   \   0000C0   90....       MOV     DPTR,#ucharT_data_H
   \   0000C3   E0           MOVX    A,@DPTR
   \   0000C4   A2E7         MOV     C,0xE0 /* A   */.7
   \   0000C6   90....       MOV     DPTR,#value_wenshi
   \   0000C9   5004         JNC     ??DHT11_6
    102                      value_wenshi[0] = '-';
   \   0000CB   742D         MOV     A,#0x2d
   \   0000CD   8002         SJMP    ??DHT11_7
    103                  else
    104                      value_wenshi[0] = ' ';
   \                     ??DHT11_6:
   \   0000CF   7420         MOV     A,#0x20
   \                     ??DHT11_7:
   \   0000D1   F0           MOVX    @DPTR,A
    105                  ucharT_data_H &= ~0x80;
   \   0000D2   90....       MOV     DPTR,#ucharT_data_H
   \   0000D5   E0           MOVX    A,@DPTR
   \   0000D6   C2E7         CLR     0xE0 /* A   */.7
   \   0000D8   F0           MOVX    @DPTR,A
    106                  T_temp = ucharT_data_H*256+ucharT_data_L;
   \   0000D9   F9           MOV     R1,A
   \   0000DA   90....       MOV     DPTR,#ucharT_data_L
   \   0000DD   E0           MOVX    A,@DPTR
   \   0000DE   90....       MOV     DPTR,#T_temp
   \   0000E1   F0           MOVX    @DPTR,A
   \   0000E2   A3           INC     DPTR
   \   0000E3   E9           MOV     A,R1
   \   0000E4   F0           MOVX    @DPTR,A
    107                  RH_temp = ucharRH_data_H*256+ucharRH_data_L;
   \   0000E5   90....       MOV     DPTR,#ucharRH_data_H
   \   0000E8   E0           MOVX    A,@DPTR
   \   0000E9   F9           MOV     R1,A
   \   0000EA   90....       MOV     DPTR,#ucharRH_data_L
   \   0000ED   E0           MOVX    A,@DPTR
   \   0000EE   90....       MOV     DPTR,#RH_temp
   \   0000F1   F0           MOVX    @DPTR,A
   \   0000F2   A3           INC     DPTR
   \   0000F3   E9           MOV     A,R1
   \   0000F4   12....       LCALL   ?Subroutine2 & 0xFFFF
    108                  
    109                  value_wenshi[1]=T_temp/100+0x30; 
   \                     ??CrossCallReturnLabel_11:
   \   0000F7   12....       LCALL   ?US_DIV_MOD
   \   0000FA   E8           MOV     A,R0
   \   0000FB   2430         ADD     A,#0x30
   \   0000FD   90....       MOV     DPTR,#value_wenshi + 1
   \   000100   12....       LCALL   ?Subroutine2 & 0xFFFF
    110                  value_wenshi[2]=T_temp%100/10+0x30;
   \                     ??CrossCallReturnLabel_12:
   \   000103   12....       LCALL   ?US_DIV_MOD
   \   000106   EA           MOV     A,R2
   \   000107   F8           MOV     R0,A
   \   000108   EB           MOV     A,R3
   \   000109   F9           MOV     R1,A
   \   00010A   7A0A         MOV     R2,#0xa
   \   00010C   7B00         MOV     R3,#0x0
   \   00010E   12....       LCALL   ?US_DIV_MOD
   \   000111   E8           MOV     A,R0
   \   000112   2430         ADD     A,#0x30
   \   000114   90....       MOV     DPTR,#value_wenshi + 2
   \   000117   F0           MOVX    @DPTR,A
    111                  value_wenshi[3]='.';
   \   000118   A3           INC     DPTR
   \   000119   742E         MOV     A,#0x2e
   \   00011B   F0           MOVX    @DPTR,A
    112                  value_wenshi[4]=T_temp%10+0x30;      
   \   00011C   90....       MOV     DPTR,#T_temp
   \   00011F   E0           MOVX    A,@DPTR
   \   000120   F8           MOV     R0,A
   \   000121   A3           INC     DPTR
   \   000122   E0           MOVX    A,@DPTR
   \   000123   F9           MOV     R1,A
   \   000124   7A0A         MOV     R2,#0xa
   \   000126   7B00         MOV     R3,#0x0
   \   000128   12....       LCALL   ?US_DIV_MOD
   \   00012B   EA           MOV     A,R2
   \   00012C   2430         ADD     A,#0x30
   \   00012E   90....       MOV     DPTR,#value_wenshi + 4
   \   000131   F0           MOVX    @DPTR,A
    113                  value_wenshi[5]=RH_temp/100+0x30;  
   \   000132   90....       MOV     DPTR,#RH_temp
   \   000135   12....       LCALL   ??Subroutine8_0 & 0xFFFF
   \                     ??CrossCallReturnLabel_13:
   \   000138   12....       LCALL   ?US_DIV_MOD
   \   00013B   E8           MOV     A,R0
   \   00013C   2430         ADD     A,#0x30
   \   00013E   90....       MOV     DPTR,#value_wenshi + 5
   \   000141   F0           MOVX    @DPTR,A
    114                  value_wenshi[6]=RH_temp%100/10+0x30;       
   \   000142   90....       MOV     DPTR,#RH_temp
   \   000145   12....       LCALL   ??Subroutine8_0 & 0xFFFF
    115              } 
   \                     ??CrossCallReturnLabel_14:
   \   000148   12....       LCALL   ?US_DIV_MOD
   \   00014B   EA           MOV     A,R2
   \   00014C   F8           MOV     R0,A
   \   00014D   EB           MOV     A,R3
   \   00014E   F9           MOV     R1,A
   \   00014F   7A0A         MOV     R2,#0xa
   \   000151   7B00         MOV     R3,#0x0
   \   000153   12....       LCALL   ?US_DIV_MOD
   \   000156   E8           MOV     A,R0
   \   000157   2430         ADD     A,#0x30
   \   000159   90....       MOV     DPTR,#value_wenshi + 6
   \   00015C   F0           MOVX    @DPTR,A
    116              else //没用成功读取，返回0
    117              {
    118          //        wendu_shi=0; 
    119          //        wendu_ge=0;
    120          //        
    121          //        shidu_shi=0; 
    122          //        shidu_ge=0;  
    123              } 
    124              
    125              P0DIR |= 0x80; //IO口需要重新配置 
   \                     ??DHT11_0:
   \   00015D   43FD80       ORL     0xfd,#0x80
    126          }
   \   000160   02....       LJMP    ??Subroutine6_0 & 0xFFFF
   \   000163                REQUIRE _A_P0
   \   000163                REQUIRE P0DIR

   \                                 In  segment BANKED_CODE, align 1, keep-with-next
   \                     ?Subroutine3:
   \   000000   F0           MOVX    @DPTR,A
   \   000001                ; Setup parameters for call to function COM
   \   000001                ; Setup parameters for call to function COM
   \   000001                ; Setup parameters for call to function COM
   \   000001                ; Setup parameters for call to function COM
   \   000001                REQUIRE ??Subroutine7_0
   \   000001                ; // Fall through to label ??Subroutine7_0

   \                                 In  segment BANKED_CODE, align 1, keep-with-next
   \                     ??Subroutine7_0:
   \   000000   12....       LCALL   ??COM?relay
   \   000003   90....       MOV     DPTR,#ucharcomdata
   \   000006   E0           MOVX    A,@DPTR
   \   000007   22           RET

   \                                 In  segment BANKED_CODE, align 1, keep-with-next
   \                     ?Subroutine2:
   \   000000   F0           MOVX    @DPTR,A
   \   000001   90....       MOV     DPTR,#T_temp
   \   000004                REQUIRE ??Subroutine8_0
   \   000004                ; // Fall through to label ??Subroutine8_0

   \                                 In  segment BANKED_CODE, align 1, keep-with-next
   \                     ??Subroutine8_0:
   \   000000   E0           MOVX    A,@DPTR
   \   000001   F8           MOV     R0,A
   \   000002   A3           INC     DPTR
   \   000003   E0           MOVX    A,@DPTR
   \   000004   F9           MOV     R1,A
   \   000005   7A64         MOV     R2,#0x64
   \   000007   7B00         MOV     R3,#0x0
   \   000009   22           RET

   \                                 In  segment BANK_RELAYS, align 1
   \                     ??Delay_us?relay:
   \   000000   12....       LCALL   ?BDISPATCH
   \   000003   ......       DC24    Delay_us

   \                                 In  segment BANK_RELAYS, align 1
   \                     ??Delay_10us?relay:
   \   000000   12....       LCALL   ?BDISPATCH
   \   000003   ......       DC24    Delay_10us

   \                                 In  segment BANK_RELAYS, align 1
   \                     ??Delay_ms?relay:
   \   000000   12....       LCALL   ?BDISPATCH
   \   000003   ......       DC24    Delay_ms

   \                                 In  segment BANK_RELAYS, align 1
   \                     ??COM?relay:
   \   000000   12....       LCALL   ?BDISPATCH
   \   000003   ......       DC24    COM

   \                                 In  segment BANK_RELAYS, align 1
   \                     ??DHT11?relay:
   \   000000   12....       LCALL   ?BDISPATCH
   \   000003   ......       DC24    DHT11

   Maximum stack usage in bytes:

     Function          ISTACK PSTACK XSTACK
     --------          ------ ------ ------
     COM                   2      0      9
       -> Onboard_wait     0      0     18
       -> Onboard_wait     0      0     18
       -> Onboard_wait     0      0     18
     DHT11                 8      0      0
       -> Delay_ms         4      0      0
       -> Onboard_wait     4      0      0
       -> Onboard_wait     4      0      0
       -> Onboard_wait     4      0      0
       -> Onboard_wait     4      0      0
       -> COM              4      0      0
       -> COM              4      0      0
       -> COM              4      0      0
       -> COM              4      0      0
       -> COM              4      0      0
     Delay_10us            2      0      0
       -> Onboard_wait     4      0      0
     Delay_ms              0      0      9
       -> Onboard_wait     0      0     18
     Delay_us              2      0      0
       -> Onboard_wait     4      0      0


   Segment part sizes:

     Function/Label      Bytes
     --------------      -----
     _A_P0                  1
     P0DIR                  1
     ucharFLAG              1
     uchartemp              1
     ucharT_data_H          1
     ucharT_data_L          1
     ucharRH_data_H         1
     ucharRH_data_L         1
     ucharcheckdata         1
     ucharT_data_H_temp     1
     ucharT_data_L_temp     1
     ucharRH_data_H_temp    1
     ucharRH_data_L_temp    1
     ucharcheckdata_temp    1
     ucharcomdata           1
     T_temp                 2
     RH_temp                2
     value_wenshi           8
     Delay_us               6
     ?Subroutine0           5
     ??Subroutine6_0        7
     Delay_10us             8
     Delay_ms              43
     ?Subroutine1           5
     COM                   85
     ?Subroutine5           8
     ?Subroutine4          22
     DHT11                355
     ?Subroutine3           1
     ??Subroutine7_0        8
     ?Subroutine2           4
     ??Subroutine8_0       10
     ??Delay_us?relay       6
     ??Delay_10us?relay     6
     ??Delay_ms?relay       6
     ??COM?relay            6
     ??DHT11?relay          6

 
 567 bytes in segment BANKED_CODE
  30 bytes in segment BANK_RELAYS
   2 bytes in segment SFR_AN
  25 bytes in segment XDATA_Z
 
 597 bytes of CODE  memory
   0 bytes of DATA  memory (+ 2 bytes shared)
  25 bytes of XDATA memory

Errors: none
Warnings: none
