###############################################################################
#                                                                             #
# IAR C/C++ Compiler V8.10.3.10338/W32 for 8051         31/Aug/2016  21:13:09 #
# Copyright 2004-2011 IAR Systems AB.                                         #
#                                                                             #
#    Core               =  plain                                              #
#    Code model         =  banked                                             #
#    Data model         =  large                                              #
#    Calling convention =  xdata reentrant                                    #
#    Constant location  =  data_rom                                           #
#    Dptr setup         =  1,16                                               #
#    Source file        =  C:\Users\icecreamco\Desktop\´ø¹¦·Å-¾àÀë\EndDvice\C #
#                          omponents\mac\low_level\srf04\single_chip\mac_radi #
#                          o_defs.c                                           #
#    Command line       =  -f C:\Users\icecreamco\Desktop\´ø¹¦·Å-¾àÀë\EndDvic #
#                          e\Projects\zstack\Samples\SampleApp\CC2530DB\..\.. #
#                          \..\Tools\CC2530DB\f8wEndev.cfg (-DCPU32MHZ        #
#                          -DROOT=__near_func -DMAC_CFG_TX_DATA_MAX=3         #
#                          -DMAC_CFG_TX_MAX=6 -DMAC_CFG_RX_MAX=3) -f          #
#                          C:\Users\icecreamco\Desktop\´ø¹¦·Å-¾àÀë\EndDvice\P #
#                          rojects\zstack\Samples\SampleApp\CC2530DB\..\..\.. #
#                          \Tools\CC2530DB\f8wConfig.cfg (-DZIGBEEPRO         #
#                          -DSECURE=0 -DZG_SECURE_DYNAMIC=0 -DREFLECTOR       #
#                          -DDEFAULT_CHANLIST=0x00000800                      #
#                          -DZDAPP_CONFIG_PAN_ID=0x1234                       #
#                          -DNWK_START_DELAY=100 -DEXTENDED_JOINING_RANDOM_MA #
#                          SK=0x007F -DBEACON_REQUEST_DELAY=100               #
#                          -DBEACON_REQ_DELAY_MASK=0x00FF                     #
#                          -DLINK_STATUS_JITTER_MASK=0x007F                   #
#                          -DROUTE_EXPIRY_TIME=30 -DAPSC_ACK_WAIT_DURATION_PO #
#                          LLED=3000 -DNWK_INDIRECT_MSG_TIMEOUT=7             #
#                          -DMAX_RREQ_ENTRIES=8 -DAPSC_MAX_FRAME_RETRIES=3    #
#                          -DNWK_MAX_DATA_RETRIES=2                           #
#                          -DMAX_POLL_FAILURE_RETRIES=2 -DMAX_BCAST=9         #
#                          -DAPS_MAX_GROUPS=16 -DMAX_RTG_ENTRIES=40           #
#                          -DNWK_MAX_BINDING_ENTRIES=4                        #
#                          -DMAX_BINDING_CLUSTER_IDS=4 "-DDEFAULT_KEY={0x01,  #
#                          0x03, 0x05, 0x07, 0x09, 0x0B, 0x0D, 0x0F, 0x00,    #
#                          0x02, 0x04, 0x06, 0x08, 0x0A, 0x0C, 0x0D}"         #
#                          -DMAC_MAX_FRAME_SIZE=116                           #
#                          -DZDNWKMGR_MIN_TRANSMISSIONS=20 "-DCONST=const     #
#                          __code" -DGENERIC=__generic                        #
#                          -DRFD_RCVC_ALWAYS_ON=FALSE -DPOLL_RATE=1000        #
#                          -DQUEUED_POLL_RATE=100 -DRESPONSE_POLL_RATE=100)   #
#                          -DREJOIN_POLL_RATE=440 C:\Users\icecreamco\Desktop #
#                          \´ø¹¦·Å-¾àÀë\EndDvice\Components\mac\low_level\srf #
#                          04\single_chip\mac_radio_defs.c -D xNWK_AUTO_POLL  #
#                          -D ZTOOL_P1 -D AUTO_RESET -D end01 -D xMT_TASK -D  #
#                          xMT_SYS_FUNC -D xMT_ZDO_FUNC -D                    #
#                          xLCD_SUPPORTED=DEBUG -lC                           #
#                          C:\Users\icecreamco\Desktop\´ø¹¦·Å-¾àÀë\EndDvice\P #
#                          rojects\zstack\Samples\SampleApp\CC2530DB\EndDevic #
#                          eEB\List\ -lA C:\Users\icecreamco\Desktop\´ø¹¦·Å-¾ #
#                          àÀë\EndDvice\Projects\zstack\Samples\SampleApp\CC2 #
#                          530DB\EndDeviceEB\List\ --diag_suppress            #
#                          Pe001,Pa010 -o C:\Users\icecreamco\Desktop\´ø¹¦·Å- #
#                          ¾àÀë\EndDvice\Projects\zstack\Samples\SampleApp\CC #
#                          2530DB\EndDeviceEB\Obj\ -e --no_code_motion        #
#                          --debug --core=plain --dptr=16,1                   #
#                          --data_model=large --code_model=banked             #
#                          --calling_convention=xdata_reentrant               #
#                          --place_constants=data_rom --nr_virtual_regs 16    #
#                          -I C:\Users\icecreamco\Desktop\´ø¹¦·Å-¾àÀë\EndDvic #
#                          e\Projects\zstack\Samples\SampleApp\CC2530DB\ -I   #
#                          C:\Users\icecreamco\Desktop\´ø¹¦·Å-¾àÀë\EndDvice\P #
#                          rojects\zstack\Samples\SampleApp\CC2530DB\..\Sourc #
#                          e\ -I C:\Users\icecreamco\Desktop\´ø¹¦·Å-¾àÀë\EndD #
#                          vice\Projects\zstack\Samples\SampleApp\CC2530DB\.. #
#                          \..\..\ZMain\TI2530DB\ -I                          #
#                          C:\Users\icecreamco\Desktop\´ø¹¦·Å-¾àÀë\EndDvice\P #
#                          rojects\zstack\Samples\SampleApp\CC2530DB\..\..\.. #
#                          \..\..\Components\hal\include\ -I                  #
#                          C:\Users\icecreamco\Desktop\´ø¹¦·Å-¾àÀë\EndDvice\P #
#                          rojects\zstack\Samples\SampleApp\CC2530DB\..\..\.. #
#                          \..\..\Components\hal\target\CC2530EB\ -I          #
#                          C:\Users\icecreamco\Desktop\´ø¹¦·Å-¾àÀë\EndDvice\P #
#                          rojects\zstack\Samples\SampleApp\CC2530DB\..\..\.. #
#                          \..\..\Components\mac\include\ -I                  #
#                          C:\Users\icecreamco\Desktop\´ø¹¦·Å-¾àÀë\EndDvice\P #
#                          rojects\zstack\Samples\SampleApp\CC2530DB\..\..\.. #
#                          \..\..\Components\mac\high_level\ -I               #
#                          C:\Users\icecreamco\Desktop\´ø¹¦·Å-¾àÀë\EndDvice\P #
#                          rojects\zstack\Samples\SampleApp\CC2530DB\..\..\.. #
#                          \..\..\Components\mac\low_level\srf04\ -I          #
#                          C:\Users\icecreamco\Desktop\´ø¹¦·Å-¾àÀë\EndDvice\P #
#                          rojects\zstack\Samples\SampleApp\CC2530DB\..\..\.. #
#                          \..\..\Components\mac\low_level\srf04\single_chip\ #
#                           -I C:\Users\icecreamco\Desktop\´ø¹¦·Å-¾àÀë\EndDvi #
#                          ce\Projects\zstack\Samples\SampleApp\CC2530DB\..\. #
#                          .\..\..\..\Components\mt\ -I                       #
#                          C:\Users\icecreamco\Desktop\´ø¹¦·Å-¾àÀë\EndDvice\P #
#                          rojects\zstack\Samples\SampleApp\CC2530DB\..\..\.. #
#                          \..\..\Components\osal\include\ -I                 #
#                          C:\Users\icecreamco\Desktop\´ø¹¦·Å-¾àÀë\EndDvice\P #
#                          rojects\zstack\Samples\SampleApp\CC2530DB\..\..\.. #
#                          \..\..\Components\services\saddr\ -I               #
#                          C:\Users\icecreamco\Desktop\´ø¹¦·Å-¾àÀë\EndDvice\P #
#                          rojects\zstack\Samples\SampleApp\CC2530DB\..\..\.. #
#                          \..\..\Components\services\sdata\ -I               #
#                          C:\Users\icecreamco\Desktop\´ø¹¦·Å-¾àÀë\EndDvice\P #
#                          rojects\zstack\Samples\SampleApp\CC2530DB\..\..\.. #
#                          \..\..\Components\stack\af\ -I                     #
#                          C:\Users\icecreamco\Desktop\´ø¹¦·Å-¾àÀë\EndDvice\P #
#                          rojects\zstack\Samples\SampleApp\CC2530DB\..\..\.. #
#                          \..\..\Components\stack\nwk\ -I                    #
#                          C:\Users\icecreamco\Desktop\´ø¹¦·Å-¾àÀë\EndDvice\P #
#                          rojects\zstack\Samples\SampleApp\CC2530DB\..\..\.. #
#                          \..\..\Components\stack\sapi\ -I                   #
#                          C:\Users\icecreamco\Desktop\´ø¹¦·Å-¾àÀë\EndDvice\P #
#                          rojects\zstack\Samples\SampleApp\CC2530DB\..\..\.. #
#                          \..\..\Components\stack\sec\ -I                    #
#                          C:\Users\icecreamco\Desktop\´ø¹¦·Å-¾àÀë\EndDvice\P #
#                          rojects\zstack\Samples\SampleApp\CC2530DB\..\..\.. #
#                          \..\..\Components\stack\sys\ -I                    #
#                          C:\Users\icecreamco\Desktop\´ø¹¦·Å-¾àÀë\EndDvice\P #
#                          rojects\zstack\Samples\SampleApp\CC2530DB\..\..\.. #
#                          \..\..\Components\stack\zdo\ -I                    #
#                          C:\Users\icecreamco\Desktop\´ø¹¦·Å-¾àÀë\EndDvice\P #
#                          rojects\zstack\Samples\SampleApp\CC2530DB\..\..\.. #
#                          \..\..\Components\zmac\ -I                         #
#                          C:\Users\icecreamco\Desktop\´ø¹¦·Å-¾àÀë\EndDvice\P #
#                          rojects\zstack\Samples\SampleApp\CC2530DB\..\..\.. #
#                          \..\..\Components\zmac\f8w\ -Ohz                   #
#                          --require_prototypes                               #
#    List file          =  C:\Users\icecreamco\Desktop\´ø¹¦·Å-¾àÀë\EndDvice\P #
#                          rojects\zstack\Samples\SampleApp\CC2530DB\EndDevic #
#                          eEB\List\mac_radio_defs.lst                        #
#    Object file        =  C:\Users\icecreamco\Desktop\´ø¹¦·Å-¾àÀë\EndDvice\P #
#                          rojects\zstack\Samples\SampleApp\CC2530DB\EndDevic #
#                          eEB\Obj\mac_radio_defs.r51                         #
#                                                                             #
#                                                                             #
###############################################################################

C:\Users\icecreamco\Desktop\´ø¹¦·Å-¾àÀë\EndDvice\Components\mac\low_level\srf04\single_chip\mac_radio_defs.c
      1          /**************************************************************************************************
      2            Filename:       mac_radio_defs.c
      3            Revised:        $Date: 2010-12-23 14:50:47 -0800 (Thu, 23 Dec 2010) $
      4            Revision:       $Revision: 24688 $
      5          
      6            Description:    Describe the purpose and contents of the file.
      7          
      8          
      9            Copyright 2006-2010 Texas Instruments Incorporated. All rights reserved.
     10          
     11            IMPORTANT: Your use of this Software is limited to those specific rights
     12            granted under the terms of a software license agreement between the user
     13            who downloaded the software, his/her employer (which must be your employer)
     14            and Texas Instruments Incorporated (the "License").  You may not use this
     15            Software unless you agree to abide by the terms of the License. The License
     16            limits your use, and you acknowledge, that the Software may not be modified,
     17            copied or distributed unless embedded on a Texas Instruments microcontroller
     18            or used solely and exclusively in conjunction with a Texas Instruments radio
     19            frequency transceiver, which is integrated into your product.  Other than for
     20            the foregoing purpose, you may not use, reproduce, copy, prepare derivative
     21            works of, modify, distribute, perform, display or sell this Software and/or
     22            its documentation for any purpose.
     23          
     24            YOU FURTHER ACKNOWLEDGE AND AGREE THAT THE SOFTWARE AND DOCUMENTATION ARE
     25            PROVIDED “AS IS?WITHOUT WARRANTY OF ANY KIND, EITHER EXPRESS OR IMPLIED,
     26            INCLUDING WITHOUT LIMITATION, ANY WARRANTY OF MERCHANTABILITY, TITLE,
     27            NON-INFRINGEMENT AND FITNESS FOR A PARTICULAR PURPOSE. IN NO EVENT SHALL
     28            TEXAS INSTRUMENTS OR ITS LICENSORS BE LIABLE OR OBLIGATED UNDER CONTRACT,
     29            NEGLIGENCE, STRICT LIABILITY, CONTRIBUTION, BREACH OF WARRANTY, OR OTHER
     30            LEGAL EQUITABLE THEORY ANY DIRECT OR INDIRECT DAMAGES OR EXPENSES
     31            INCLUDING BUT NOT LIMITED TO ANY INCIDENTAL, SPECIAL, INDIRECT, PUNITIVE
     32            OR CONSEQUENTIAL DAMAGES, LOST PROFITS OR LOST DATA, COST OF PROCUREMENT
     33            OF SUBSTITUTE GOODS, TECHNOLOGY, SERVICES, OR ANY CLAIMS BY THIRD PARTIES
     34            (INCLUDING BUT NOT LIMITED TO ANY DEFENSE THEREOF), OR OTHER SIMILAR COSTS.
     35          
     36            Should you have any questions regarding your right to use this Software,
     37            contact Texas Instruments Incorporated at www.TI.com.
     38          **************************************************************************************************/
     39          
     40          /* ------------------------------------------------------------------------------------------------
     41           *                                             Includes
     42           * ------------------------------------------------------------------------------------------------
     43           */
     44          #include "mac_radio_defs.h"

   \                                 In  segment SFR_AN, at 0x90
   \   union <unnamed> volatile __sfr _A_P1
   \                     _A_P1:
   \   000000                DS 1

   \                                 In  segment SFR_AN, at 0xf4
   \   unsigned char volatile __sfr P1SEL
   \                     P1SEL:
   \   000000                DS 1

   \                                 In  segment SFR_AN, at 0xfe
   \   unsigned char volatile __sfr P1DIR
   \                     P1DIR:
   \   000000                DS 1
     45          #include "hal_types.h"
     46          #include "hal_assert.h"
     47          #include "hal_mcu.h"
     48          #include "mac_pib.h"
     49          
     50          
     51          /* ------------------------------------------------------------------------------------------------
     52           *                                        Global Constants
     53           * ------------------------------------------------------------------------------------------------
     54           */
     55          #if defined MAC_RUNTIME_CC2591 || defined MAC_RUNTIME_CC2590 || \
     56            (!defined HAL_PA_LNA && !defined HAL_PA_LNA_CC2590)
     57          
     58          #ifdef HAL_MCU_CC2533
     59          const uint8 CODE macRadioDefsTxPwrBare[] =
     60          {
     61            4,  /* tramsmit power level of the first entry */
     62            (uint8)(int8)-21, /* transmit power level of the last entry */
     63            /*   4 dBm */   0xEC,   /* characterized as  4.5 dBm in datasheet */
     64            /*   3 dBm */   0xDC,   /* characterized as  3   dBm in datasheet */
     65            /*   2 dBm */   0xDC,   
     66            /*   1 dBm */   0xCC,   /* characterized as  1.7 dBm in datasheet */
     67            /*   0 dBm */   0xBC,   /* characterized as  0.3 dBm in datasheet */
     68            /*  -1 dBm */   0xAC,   /* characterized as -1   dBm in datasheet */
     69            /*  -2 dBm */   0xAC,
     70            /*  -3 dBm */   0x9C,   /* characterized as -2.8 dBm in datasheet */
     71            /*  -4 dBm */   0x9C,   
     72            /*  -5 dBm */   0x8C,   /* characterized as -4.1 dBm in datasheet */
     73            /*  -6 dBm */   0x7C,   /* characterized as -5.9 dBm in datasheet */
     74            /*  -7 dBm */   0x7C,
     75            /*  -8 dBm */   0x6C,   /* characterized as -7.7 dBm in datasheet */
     76            /*  -9 dBm */   0x6C,
     77            /* -10 dBm */   0x5C,   /* characterized as -9.9 dBm in datasheet */
     78            /* -11 dBm */   0x5C,
     79            /* -12 dBm */   0x5C,   /* characterized as -9.9 dBm in datasheet */
     80            /* -13 dBm */   0x4C,   /* characterized as -12.8 dBm in datasheet */
     81            /* -14 dBm */   0x4C,
     82            /* -15 dBm */   0x3C,   /* characterized as -14.9 dBm in datasheet */
     83            /* -16 dBm */   0x3C, 
     84            /* -17 dBm */   0x2C,   /* characterized as -16.6 dBm in datasheet */
     85            /* -18 dBm */   0x2C,
     86            /* -19 dBm */   0x1C,   /* characterized as -18.7 dBm in datasheet */
     87            /* -20 dBm */   0x1C,   /* characterized as -18.7 dBm in datasheet */
     88            /* -21 dBm */   0x0C
     89          };
     90          #else /* HAL_MCU_CC2533 */
     91          const uint8 CODE macRadioDefsTxPwrBare[] =
     92          {
     93            3,  /* tramsmit power level of the first entry */
     94            (uint8)(int8)-22, /* transmit power level of the last entry */
     95            /*   3 dBm */   0xF5,   /* characterized as  4.5 dBm in datasheet */
     96            /*   2 dBm */   0xE5,   /* characterized as  2.5 dBm in datasheet */
     97            /*   1 dBm */   0xD5,   /* characterized as  1   dBm in datasheet */
     98            /*   0 dBm */   0xD5,   /* characterized as  1   dBm in datasheet */
     99            /*  -1 dBm */   0xC5,   /* characterized as -0.5 dBm in datasheet */
    100            /*  -2 dBm */   0xB5,   /* characterized as -1.5 dBm in datasheet */
    101            /*  -3 dBm */   0xA5,   /* characterized as -3   dBm in datasheet */
    102            /*  -4 dBm */   0x95,   /* characterized as -4   dBm in datasheet */
    103            /*  -5 dBm */   0x95,
    104            /*  -6 dBm */   0x85,   /* characterized as -6   dBm in datasheet */
    105            /*  -7 dBm */   0x85,
    106            /*  -8 dBm */   0x75,   /* characterized as -8   dBm in datasheet */
    107            /*  -9 dBm */   0x75,
    108            /* -10 dBm */   0x65,   /* characterized as -10  dBm in datasheet */
    109            /* -11 dBm */   0x65,
    110            /* -12 dBm */   0x55,   /* characterized as -12  dBm in datasheet */
    111            /* -13 dBm */   0x55,
    112            /* -14 dBm */   0x45,   /* characterized as -14  dBm in datasheet */
    113            /* -15 dBm */   0x45,
    114            /* -16 dBm */   0x35,   /* characterized as -16  dBm in datasheet */
    115            /* -17 dBm */   0x35,
    116            /* -18 dBm */   0x25,   /* characterized as -18  dBm in datasheet */
    117            /* -19 dBm */   0x25,
    118            /* -20 dBm */   0x15,   /* characterized as -20  dBm in datasheet */
    119            /* -21 dBm */   0x15,
    120            /* -22 dBm */   0x05    /* characterized as -22  dBm in datasheet */
    121          };
    122          #endif /* HAL_MCU_CC2533 */
    123          #endif /* defined MAC_RUNTIME_CC2591 || defined MAC_RUNTIME_CC2590 || 
    124                    (!defined HAL_PA_LNA && !defined HAL_PA_LNA_CC2590) */
    125          
    126          #if defined HAL_PA_LNA || defined MAC_RUNTIME_CC2591

   \                                 In  segment CODE_C, align 1
    127          const uint8 CODE macRadioDefsTxPwrCC2591[] =
   \                     macRadioDefsTxPwrCC2591:
   \   000000   14           DB 20
   \   000001   0A           DB 10
   \   000002   E5           DB 229
   \   000003   D5           DB 213
   \   000004   C5           DB 197
   \   000005   B5           DB 181
   \   000006   A5           DB 165
   \   000007   A5           DB 165
   \   000008   95           DB 149
   \   000009   85           DB 133
   \   00000A   85           DB 133
   \   00000B   75           DB 117
   \   00000C   65           DB 101
    128          {
    129            20,  /* tramsmit power level of the first entry */
    130            (uint8)(int8)10, /* transmit power level of the last entry */
    131            /*  20 dBm */   0xE5,   /* characterized as 20 dBm in datasheet */
    132            /*  19 dBm */   0xD5,   /* characterized as 19 dBm in datasheet */
    133            /*  18 dBm */   0xC5,   /* characterized as 18 dBm in datasheet */
    134            /*  17 dBm */   0xB5,   /* characterized as 17 dBm in datasheet */
    135            /*  16 dBm */   0xA5,   /* characterized as 16 dBm in datasheet */
    136            /*  15 dBm */   0xA5,
    137            /*  14 dBm */   0x95,   /* characterized as 14.5 dBm in datasheet */
    138            /*  13 dBm */   0x85,   /* characterized as 13 dBm in datasheet */
    139            /*  12 dBm */   0x85,
    140            /*  11 dBm */   0x75,   /* characterized as 11.5 dBm in datasheet */
    141            /*  10 dBm */   0x65    /* characterized as 10 dBm in datasheet */
    142          };
    143          #endif
    144          
    145          
    146          /* Placeholder for CC2590 */
    147          #if defined HAL_PA_LNA_CC2590 || defined MAC_RUNTIME_CC2590
    148          const uint8 CODE macRadioDefsTxPwrCC2590[] =
    149          {
    150            11,  /* tramsmit power level of the first entry */
    151            (uint8)(int8)-12, /* transmit power level of the last entry */
    152            /* Note that the characterization is preliminary */
    153            /* 11 dBm */   0xF5,   /* characterized as 11.8 dBm */
    154            /* 10 dBm */   0xE5,   /* characterized as 10.6 dBm */
    155            /*  9 dBm */   0xD5,   /* characterized as 9.5 dBm */
    156            /*  8 dBm */   0xC5,   /* characterized as 8.5 dBm */
    157            /*  7 dBm */   0xB5,   /* characterized as 7.6 dBm */
    158            /*  6 dBm */   0xA5,   /* characterized as 6.4 dBm */
    159            /*  5 dBm */   0xA5,   /* characterized as 6.4 dBm */
    160            /*  4 dBm */   0x95,   /* characterized as 4.7 dBm */
    161            /*  3 dBm */   0x85,   /* characterized as 3.5 dBm */
    162            /*  2 dBm */   0x75,   /* characterized as 2.0 dBm */
    163            /*  1 dBm */   0x75,   /* characterized as 2.0 dBm */
    164            /*  0 dBm */   0x65,   /* characterized as 0.3 dBm */
    165            /* -1 dBm */   0x65,   /* characterized as 0.3 dBm */
    166            /* -2 dBm */   0x55,   /* characterized as -1.7 dBm */
    167            /* -3 dBm */   0x55,   /* characterized as -1.7 dBm */
    168            /* -4 dBm */   0x45,   /* characterized as -3.9 dBm */
    169            /* -5 dBm */   0x45,   /* characterized as -3.9 dBm */
    170            /* -6 dBm */   0x45,   /* characterized as -3.9 dBm */
    171            /* -7 dBm */   0x35,   /* characterized as -6.3 dBm*/
    172            /* -8 dBm */   0x25,   /* characterized as -7.8 dBm */
    173            /* -9 dBm */   0x25,   /* characterized as -7.8 dBm */
    174            /* -10 dBm */  0x15,   /* characterized as -9.8 dBm */
    175            /* -11 dBm */  0x15,   /* characterized as -9.8 dBm */
    176            /* -12 dBm */  0x05,   /* characterized as -11.8 dBm */
    177          };
    178          #endif
    179          
    180          #if defined MAC_RUNTIME_CC2591 || defined MAC_RUNTIME_CC2590 || \
    181            defined HAL_PA_LNA || defined HAL_PA_LNA_CC2590
    182          
    183          /* TX power table array */

   \                                 In  segment CODE_C, align 1
    184          const uint8 CODE *const CODE macRadioDefsTxPwrTables[] =
   \                     macRadioDefsTxPwrTables:
   \   000000   ....         DW macRadioDefsTxPwrCC2591
    185          {
    186          #if defined MAC_RUNTIME_CC2591 || defined MAC_RUNTIME_CC2590 || \
    187            (!defined HAL_PA_LNA && !defined HAL_PA_LNA_CC2590)
    188            macRadioDefsTxPwrBare,
    189          #endif
    190          
    191          #if defined HAL_PA_LNA || defined MAC_RUNTIME_CC2591
    192            macRadioDefsTxPwrCC2591,
    193          #endif
    194          
    195          #if defined HAL_PA_LNA_CC2590 || defined MAC_RUNTIME_CC2590
    196            macRadioDefsTxPwrCC2590,
    197          #endif
    198          };
    199          
    200          /* RSSI offset adjustment value array */

   \                                 In  segment CODE_C, align 1
    201          const int8 CODE macRadioDefsRssiAdj[] =
   \                     macRadioDefsRssiAdj:
   \   000000   FA           DB -6
   \   000001   06           DB 6
    202          {
    203          #if defined MAC_RUNTIME_CC2591 || defined MAC_RUNTIME_CC2590 || \
    204            (!defined HAL_PA_LNA && !defined HAL_PA_LNA_CC2590)
    205            0,
    206          #endif
    207          
    208          #if defined HAL_PA_LNA || defined MAC_RUNTIME_CC2591
    209            -6, /* high gain mode */
    210            6,  /* low gain mode */
    211          #endif
    212          
    213          #if defined HAL_PA_LNA_CC2590 || defined MAC_RUNTIME_CC2590
    214          -10,  /* TBD: place holder for high gain mode */
    215            0,  /* TBD: place holder for low gain mode */
    216          #endif
    217          };
    218          
    219          #endif /* defined MAC_RUNTIME_CC2591 || defined MAC_RUNTIME_CC2590 || ... */
    220          
    221          #if defined MAC_RUNTIME_CC2591 || defined MAC_RUNTIME_CC2590 || \
    222            defined HAL_PA_LNA || defined HAL_PA_LNA_CC2590

   \                                 In  segment XDATA_Z, align 1, keep-with-next
    223          uint8 macRadioDefsRefTableId = 0;
   \                     macRadioDefsRefTableId:
   \   000000                DS 1
   \   000001                REQUIRE __INIT_XDATA_Z
    224          #endif
    225          
    226          /* RF observable control register value to output PA signal */
    227          #define RFC_OBS_CTRL_PA_PD_INV        0x68
    228          
    229          /* RF observable control register value to output LNA signal */
    230          #define RFC_OBS_CTRL_LNAMIX_PD_INV    0x6A
    231          
    232          /* OBSSELn register value to select RF observable 0 */
    233          #define OBSSEL_OBS_CTRL0             0xFB
    234          
    235          /* OBSSELn register value to select RF observable 1 */
    236          #define OBSSEL_OBS_CTRL1             0xFC
    237          
    238          
    239          /**************************************************************************************************
    240           * @fn          MAC_SelectRadioRegTable
    241           *
    242           * @brief       Select radio register table in case multiple register tables are included
    243           *              in the build
    244           *
    245           * @param       txPwrTblIdx - TX power register value table index
    246           * @param       rssiAdjIdx - RSSI adjustment value index
    247           *
    248           * @return      none
    249           **************************************************************************************************
    250           */

   \                                 In  segment BANKED_CODE, align 1, keep-with-next
    251          extern void MAC_SetRadioRegTable ( uint8 txPwrTblIdx, uint8 rssiAdjIdx )
   \                     MAC_SetRadioRegTable:
    252          {
   \   000000   C082         PUSH    DPL
   \   000002   C083         PUSH    DPH
   \   000004                ; Saved register size: 2
   \   000004                ; Auto size: 0
    253            /* Depending on compile flags, the parameters may not be used */
    254            (void) txPwrTblIdx;
    255            (void) rssiAdjIdx;
    256          
    257          #if defined MAC_RUNTIME_CC2591 || defined MAC_RUNTIME_CC2590
    258            if (txPwrTblIdx >= sizeof(macRadioDefsTxPwrTables)/sizeof(macRadioDefsTxPwrTables[0]))
    259            {
    260              txPwrTblIdx = 0;
    261            }
    262          #endif /* defined MAC_RUNTIME_CC2591 || defined MAC_RUNTIME_CC2590 */
    263          
    264          #if defined MAC_RUNTIME_CC2591 || defined MAC_RUNTIME_CC2590 || \
    265            defined HAL_PA_LNA || defined HAL_PA_LNA_CC2590
    266          
    267            if (rssiAdjIdx >= sizeof(macRadioDefsRssiAdj)/sizeof(macRadioDefsRssiAdj[0]))
   \   000004   EA           MOV     A,R2
   \   000005   C3           CLR     C
   \   000006   9402         SUBB    A,#0x2
   \   000008   4002         JC      ??MAC_SetRadioRegTable_0
    268            {
    269              rssiAdjIdx = 0;
   \   00000A   7A00         MOV     R2,#0x0
    270            }
    271          
    272            macRadioDefsRefTableId = (txPwrTblIdx << 4) | rssiAdjIdx;
   \                     ??MAC_SetRadioRegTable_0:
   \   00000C   E9           MOV     A,R1
   \   00000D   C4           SWAP    A
   \   00000E   54F0         ANL     A,#0xf0
   \   000010   4A           ORL     A,R2
   \   000011   90....       MOV     DPTR,#macRadioDefsRefTableId
   \   000014                REQUIRE ?Subroutine0
   \   000014                ; // Fall through to label ?Subroutine0
    273          
    274          #endif /* defined MAC_RUNTIME_CC2591 || defined MAC_RUNTIME_CC2590 || .. */
    275          }

   \                                 In  segment BANKED_CODE, align 1, keep-with-next
   \                     ?Subroutine0:
   \   000000   F0           MOVX    @DPTR,A
   \   000001   D083         POP     DPH
   \   000003   D082         POP     DPL
   \   000005   02....       LJMP    ?BRET
    276          
    277          
    278          /**************************************************************************************************
    279           * @fn          macRadioTurnOnPower
    280           *
    281           * @brief       Logic and sequence for powering up the radio.
    282           *
    283           * @param       none
    284           *
    285           * @return      none
    286           **************************************************************************************************
    287           */

   \                                 In  segment BANKED_CODE, align 1, keep-with-next
    288          MAC_INTERNAL_API void macRadioTurnOnPower(void)
   \                     macRadioTurnOnPower:
    289          {
   \   000000   C082         PUSH    DPL
   \   000002   C083         PUSH    DPH
   \   000004                ; Saved register size: 2
   \   000004                ; Auto size: 0
    290            /* Enable RF error trap */
    291            MAC_MCU_RFERR_ENABLE_INTERRUPT();
   \   000004   9061A5       MOV     DPTR,#0x61a5
   \   000007   E0           MOVX    A,@DPTR
   \   000008   D2E2         SETB    0xE0 /* A   */.2
   \   00000A   F0           MOVX    @DPTR,A
    292          
    293          #if defined MAC_RUNTIME_CC2591 || defined MAC_RUNTIME_CC2590
    294            /* table ID is referenced only when runtime configuratino is enabled */
    295            if (macRadioDefsRefTableId & 0xf0)
    296          #endif /* defined MAC_RUNTIME_CC2591 || defined MAC_RUNTIME_CC2590 */
    297          
    298          #if defined MAC_RUNTIME_CC2591 || defined MAC_RUNTIME_CC2590 || \
    299            defined HAL_PA_LNA || defined HAL_PA_LNA_CC2590
    300            { /* either if compound statement or non-conditional compound statement */
    301          
    302              /* (Re-)Configure PA and LNA control signals to RF frontend chips.
    303              * Note that The register values are not retained during sleep.
    304              */
    305          
    306              /* P1_1 -> PAEN */
    307              //RFC_OBS_CTRL0 = RFC_OBS_CTRL_PA_PD_INV;
    308              //OBSSEL1       = OBSSEL_OBS_CTRL0;
    309              RFC_OBS_CTRL0 = RFC_OBS_CTRL_PA_PD_INV;
   \   00000B   9061EB       MOV     DPTR,#0x61eb
   \   00000E   7468         MOV     A,#0x68
   \   000010   F0           MOVX    @DPTR,A
    310              OBSSEL5       = OBSSEL_OBS_CTRL0;
   \   000011   906248       MOV     DPTR,#0x6248
   \   000014   74FB         MOV     A,#-0x5
   \   000016   F0           MOVX    @DPTR,A
    311          
    312              /* P1_4 -> EN (LNA control) */
    313              //RFC_OBS_CTRL1 = RFC_OBS_CTRL_LNAMIX_PD_INV;
    314              //OBSSEL4       = OBSSEL_OBS_CTRL1;
    315              P1SEL &= ~0X10;
   \   000017   53F4EF       ANL     0xf4,#0xef
    316              P1DIR |= 0X10;
   \   00001A   43FE10       ORL     0xfe,#0x10
    317              P1_4 = 1;
   \   00001D   D294         SETB    0x90.4
    318              
    319              
    320              /* For any RX, change CCA settings for CC2591 compression workaround.
    321               * This will override LNA control if CC2591_COMPRESSION_WORKAROUND 
    322               * flag is defined. 
    323               */
    324              COMPRESSION_WORKAROUND_ON();
    325            }
    326          #endif /* defined MAC_RUNTIME_CC2591 || ... || defined HAL_PA_LNA_CC2590 */
    327          
    328            if (macChipVersion <= REV_B)
   \   00001F   90....       MOV     DPTR,#macChipVersion
   \   000022   E0           MOVX    A,@DPTR
   \   000023   C3           CLR     C
   \   000024   9412         SUBB    A,#0x12
   \   000026   502D         JNC     ??macRadioTurnOnPower_0
    329            {
    330              /* radio initializations for disappearing RAM; PG1.0 and before only */
    331              MAC_RADIO_SET_PAN_ID(macPib.panId);
   \   000028   90....       MOV     DPTR,#macPib + 29
   \   00002B   E0           MOVX    A,@DPTR
   \   00002C   906172       MOV     DPTR,#0x6172
   \   00002F   F0           MOVX    @DPTR,A
   \   000030   90....       MOV     DPTR,#macPib + 30
   \   000033   E0           MOVX    A,@DPTR
   \   000034   906173       MOV     DPTR,#0x6173
   \   000037   F0           MOVX    @DPTR,A
    332              MAC_RADIO_SET_SHORT_ADDR(macPib.shortAddress);
   \   000038   90....       MOV     DPTR,#macPib + 33
   \   00003B   E0           MOVX    A,@DPTR
   \   00003C   906174       MOV     DPTR,#0x6174
   \   00003F   F0           MOVX    @DPTR,A
   \   000040   90....       MOV     DPTR,#macPib + 34
   \   000043   E0           MOVX    A,@DPTR
   \   000044   906175       MOV     DPTR,#0x6175
   \   000047   F0           MOVX    @DPTR,A
    333              MAC_RADIO_SET_IEEE_ADDR(macPib.extendedAddress.addr.extAddr);
   \   000048                ; Setup parameters for call to function macMemWriteRam
   \   000048   7908         MOV     R1,#0x8
   \   00004A   7C..         MOV     R4,#(macPib + 49) & 0xff
   \   00004C   7D..         MOV     R5,#((macPib + 49) >> 8) & 0xff
   \   00004E   7A6A         MOV     R2,#0x6a
   \   000050   7B61         MOV     R3,#0x61
   \   000052   12....       LCALL   ??macMemWriteRam?relay
    334            }
    335          
    336            /* Turn on frame filtering */
    337            MAC_RADIO_TURN_ON_RX_FRAME_FILTERING();
   \                     ??macRadioTurnOnPower_0:
   \   000055   906180       MOV     DPTR,#0x6180
   \   000058   E4           CLR     A
   \   000059   F0           MOVX    @DPTR,A
   \   00005A   E0           MOVX    A,@DPTR
   \   00005B   4405         ORL     A,#0x5
   \   00005D   80..         SJMP    ?Subroutine0
   \   00005F                REQUIRE P1SEL
   \   00005F                REQUIRE P1DIR
   \   00005F                REQUIRE _A_P1
    338          }
    339          
    340          
    341          /**************************************************************************************************
    342           * @fn          macRadioTurnOffPower
    343           *
    344           * @brief       Logic and sequence for powering down the radio.
    345           *
    346           * @param       none
    347           *
    348           * @return      none
    349           **************************************************************************************************
    350           */

   \                                 In  segment BANKED_CODE, align 1, keep-with-next
    351          MAC_INTERNAL_API void macRadioTurnOffPower(void)
   \                     macRadioTurnOffPower:
    352          {
   \   000000   C082         PUSH    DPL
   \   000002   C083         PUSH    DPH
   \   000004                ; Saved register size: 2
   \   000004                ; Auto size: 0
    353            /* Disable RF error trap */
    354            MAC_MCU_RFERR_DISABLE_INTERRUPT();
   \   000004   9061A5       MOV     DPTR,#0x61a5
   \   000007   E0           MOVX    A,@DPTR
   \   000008   C2E2         CLR     0xE0 /* A   */.2
   \   00000A   80..         SJMP    ?Subroutine0
    355          }

   \                                 In  segment BANK_RELAYS, align 1
   \                     ??MAC_SetRadioRegTable?relay:
   \   000000   12....       LCALL   ?BDISPATCH
   \   000003   ......       DC24    MAC_SetRadioRegTable

   \                                 In  segment BANK_RELAYS, align 1
   \                     ??macRadioTurnOnPower?relay:
   \   000000   12....       LCALL   ?BDISPATCH
   \   000003   ......       DC24    macRadioTurnOnPower

   \                                 In  segment BANK_RELAYS, align 1
   \                     ??macRadioTurnOffPower?relay:
   \   000000   12....       LCALL   ?BDISPATCH
   \   000003   ......       DC24    macRadioTurnOffPower
    356          
    357          
    358          /**************************************************************************************************
    359           *                                  Compile Time Integrity Checks
    360           **************************************************************************************************
    361           */
    362          #if (HAL_CPU_CLOCK_MHZ != 32)
    363          #error "ERROR: The only tested/supported clock speed is 32 MHz."
    364          #endif
    365          
    366          #if (MAC_RADIO_RECEIVER_SENSITIVITY_DBM > MAC_SPEC_MIN_RECEIVER_SENSITIVITY)
    367          #error "ERROR: Radio sensitivity does not meet specification."
    368          #endif
    369          
    370          #if defined (HAL_PA_LNA) && defined (HAL_PA_LNA_CC2590)
    371          #error "ERROR: HAL_PA_LNA and HAL_PA_LNA_CC2590 cannot be both defined."
    372          #endif
    373          
    374          #if defined (HAL_PA_LNA) && defined (MAC_RUNTIME_CC2591)
    375          #error "ERROR: HAL_PA_LNA and MAC_RUNTIME_CC2591 cannot be both defined."
    376          #endif
    377          
    378          #if defined (HAL_PA_LNA_CC2590) && defined (MAC_RUNTIME_CC2590)
    379          #error "ERROR: HAL_PA_LNA_CC2590 and MAC_RUNTIME_CC2590 cannot be both defined."
    380          #endif
    381          
    382          #if defined (CC2591_COMPRESSION_WORKAROUND) && !defined (HAL_PA_LNA)
    383          #error "ERROR: CC2591_COMPRESSION_WORKAROUND can only be defined when HAL_PA_LNA is defined."
    384          #endif
    385          
    386          #if defined (CC2591_COMPRESSION_WORKAROUND)
    387          #warning "WARNING: Contact TI customer support if your reference design is based on CC2530-CC2591EM rev 2.0 or prior."
    388          #endif
    389          
    390          /**************************************************************************************************
    391           */

   Maximum stack usage in bytes:

     Function             ISTACK PSTACK XSTACK
     --------             ------ ------ ------
     MAC_SetRadioRegTable     2      0      0
     macRadioTurnOffPower     2      0      0
     macRadioTurnOnPower      2      0      0
       -> macMemWriteRam      4      0      0


   Segment part sizes:

     Function/Label               Bytes
     --------------               -----
     _A_P1                           1
     P1SEL                           1
     P1DIR                           1
     macRadioDefsTxPwrCC2591        13
     macRadioDefsTxPwrTables         2
     macRadioDefsRssiAdj             2
     macRadioDefsRefTableId          1
     MAC_SetRadioRegTable           20
     ?Subroutine0                    8
     macRadioTurnOnPower            95
     macRadioTurnOffPower           12
     ??MAC_SetRadioRegTable?relay    6
     ??macRadioTurnOnPower?relay     6
     ??macRadioTurnOffPower?relay    6

 
 135 bytes in segment BANKED_CODE
  18 bytes in segment BANK_RELAYS
  17 bytes in segment CODE_C
   3 bytes in segment SFR_AN
   1 byte  in segment XDATA_Z
 
 170 bytes of CODE  memory
   0 bytes of DATA  memory (+ 3 bytes shared)
   1 byte  of XDATA memory

Errors: none
Warnings: none
